; Function Attrs: nounwind uwtable
define ptr @l_Lake_LeanLib_plugins(ptr noundef %0) local_unnamed_addr #0 {
  %2 = getelementptr inbounds nuw i8, ptr %0, i64 8
  %3 = load ptr, ptr %2, align 8, !tbaa !4
  %4 = ptrtoint ptr %3 to i64
  %5 = and i64 %4, 1
  %.not = icmp eq i64 %5, 0
  br i1 %.not, label %6, label %lean_inc.exit29

6:                                                ; preds = %1
  %.val.i = load i32, ptr %3, align 4, !tbaa !8
  %7 = icmp sgt i32 %.val.i, 0
  br i1 %7, label %8, label %10, !prof !11

8:                                                ; preds = %6
  %9 = add nuw i32 %.val.i, 1
  store i32 %9, ptr %3, align 4, !tbaa !8
  br label %lean_inc.exit29

10:                                               ; preds = %6
  %.not.i48 = icmp eq i32 %.val.i, 0
  br i1 %.not.i48, label %lean_inc.exit29, label %11

11:                                               ; preds = %10
  tail call void @lean_inc_ref_cold(ptr noundef nonnull %3) #4
  br label %lean_inc.exit29

lean_inc.exit29:                                  ; preds = %11, %10, %8, %1
  %12 = getelementptr inbounds nuw i8, ptr %3, i64 32
  %13 = load ptr, ptr %12, align 8, !tbaa !4
  %14 = ptrtoint ptr %13 to i64
  %15 = and i64 %14, 1
  %.not67 = icmp eq i64 %15, 0
  br i1 %.not67, label %16, label %lean_inc.exit28

16:                                               ; preds = %lean_inc.exit29
  %.val.i49 = load i32, ptr %13, align 4, !tbaa !8
  %17 = icmp sgt i32 %.val.i49, 0
  br i1 %17, label %18, label %20, !prof !11

18:                                               ; preds = %16
  %19 = add nuw i32 %.val.i49, 1
  store i32 %19, ptr %13, align 4, !tbaa !8
  br label %lean_inc.exit28

20:                                               ; preds = %16
  %.not.i50 = icmp eq i32 %.val.i49, 0
  br i1 %.not.i50, label %lean_inc.exit28, label %21

21:                                               ; preds = %20
  tail call void @lean_inc_ref_cold(ptr noundef nonnull %13) #4
  br label %lean_inc.exit28

lean_inc.exit28:                                  ; preds = %21, %20, %18, %lean_inc.exit29
  br i1 %.not, label %22, label %lean_dec.exit35

22:                                               ; preds = %lean_inc.exit28
  %23 = load i32, ptr %3, align 4, !tbaa !8
  %24 = icmp sgt i32 %23, 1
  br i1 %24, label %25, label %27, !prof !11

25:                                               ; preds = %22
  %26 = add nsw i32 %23, -1
  store i32 %26, ptr %3, align 4, !tbaa !8
  br label %lean_dec.exit35

27:                                               ; preds = %22
  %.not.i = icmp eq i32 %23, 0
  br i1 %.not.i, label %lean_dec.exit35, label %28

28:                                               ; preds = %27
  tail call void @lean_dec_ref_cold(ptr noundef nonnull %3) #4
  br label %lean_dec.exit35

lean_dec.exit35:                                  ; preds = %28, %27, %25, %lean_inc.exit28
  %29 = getelementptr inbounds nuw i8, ptr %13, i64 16
  %30 = load ptr, ptr %29, align 8, !tbaa !4
  %31 = ptrtoint ptr %30 to i64
  %32 = and i64 %31, 1
  %.not68 = icmp eq i64 %32, 0
  br i1 %.not68, label %33, label %lean_inc.exit27

33:                                               ; preds = %lean_dec.exit35
  %.val.i52 = load i32, ptr %30, align 4, !tbaa !8
  %34 = icmp sgt i32 %.val.i52, 0
  br i1 %34, label %35, label %37, !prof !11

35:                                               ; preds = %33
  %36 = add nuw i32 %.val.i52, 1
  store i32 %36, ptr %30, align 4, !tbaa !8
  br label %lean_inc.exit27

37:                                               ; preds = %33
  %.not.i53 = icmp eq i32 %.val.i52, 0
  br i1 %.not.i53, label %lean_inc.exit27, label %38

38:                                               ; preds = %37
  tail call void @lean_inc_ref_cold(ptr noundef nonnull %30) #4
  br label %lean_inc.exit27

lean_inc.exit27:                                  ; preds = %38, %37, %35, %lean_dec.exit35
  br i1 %.not67, label %39, label %lean_dec.exit34

39:                                               ; preds = %lean_inc.exit27
  %40 = load i32, ptr %13, align 4, !tbaa !8
  %41 = icmp sgt i32 %40, 1
  br i1 %41, label %42, label %44, !prof !11

42:                                               ; preds = %39
  %43 = add nsw i32 %40, -1
  store i32 %43, ptr %13, align 4, !tbaa !8
  br label %lean_dec.exit34

44:                                               ; preds = %39
  %.not.i36 = icmp eq i32 %40, 0
  br i1 %.not.i36, label %lean_dec.exit34, label %45

45:                                               ; preds = %44
  tail call void @lean_dec_ref_cold(ptr noundef nonnull %13) #4
  br label %lean_dec.exit34

lean_dec.exit34:                                  ; preds = %45, %44, %42, %lean_inc.exit27
  %46 = getelementptr inbounds nuw i8, ptr %30, i64 104
  %47 = load ptr, ptr %46, align 8, !tbaa !4
  %48 = ptrtoint ptr %47 to i64
  %49 = and i64 %48, 1
  %.not69 = icmp eq i64 %49, 0
  br i1 %.not69, label %50, label %lean_inc.exit26

50:                                               ; preds = %lean_dec.exit34
  %.val.i55 = load i32, ptr %47, align 4, !tbaa !8
  %51 = icmp sgt i32 %.val.i55, 0
  br i1 %51, label %52, label %54, !prof !11

52:                                               ; preds = %50
  %53 = add nuw i32 %.val.i55, 1
  store i32 %53, ptr %47, align 4, !tbaa !8
  br label %lean_inc.exit26

54:                                               ; preds = %50
  %.not.i56 = icmp eq i32 %.val.i55, 0
  br i1 %.not.i56, label %lean_inc.exit26, label %55

55:                                               ; preds = %54
  tail call void @lean_inc_ref_cold(ptr noundef nonnull %47) #4
  br label %lean_inc.exit26

lean_inc.exit26:                                  ; preds = %55, %54, %52, %lean_dec.exit34
  br i1 %.not68, label %56, label %lean_dec.exit33

56:                                               ; preds = %lean_inc.exit26
  %57 = load i32, ptr %30, align 4, !tbaa !8
  %58 = icmp sgt i32 %57, 1
  br i1 %58, label %59, label %61, !prof !11

59:                                               ; preds = %56
  %60 = add nsw i32 %57, -1
  store i32 %60, ptr %30, align 4, !tbaa !8
  br label %lean_dec.exit33

61:                                               ; preds = %56
  %.not.i38 = icmp eq i32 %57, 0
  br i1 %.not.i38, label %lean_dec.exit33, label %62

62:                                               ; preds = %61
  tail call void @lean_dec_ref_cold(ptr noundef nonnull %30) #4
  br label %lean_dec.exit33

lean_dec.exit33:                                  ; preds = %62, %61, %59, %lean_inc.exit26
  %63 = getelementptr inbounds nuw i8, ptr %0, i64 24
  %64 = load ptr, ptr %63, align 8, !tbaa !4
  %65 = ptrtoint ptr %64 to i64
  %66 = and i64 %65, 1
  %.not70 = icmp eq i64 %66, 0
  br i1 %.not70, label %67, label %lean_inc.exit25

67:                                               ; preds = %lean_dec.exit33
  %.val.i58 = load i32, ptr %64, align 4, !tbaa !8
  %68 = icmp sgt i32 %.val.i58, 0
  br i1 %68, label %69, label %71, !prof !11

69:                                               ; preds = %67
  %70 = add nuw i32 %.val.i58, 1
  store i32 %70, ptr %64, align 4, !tbaa !8
  br label %lean_inc.exit25

71:                                               ; preds = %67
  %.not.i59 = icmp eq i32 %.val.i58, 0
  br i1 %.not.i59, label %lean_inc.exit25, label %72

72:                                               ; preds = %71
  tail call void @lean_inc_ref_cold(ptr noundef nonnull %64) #4
  br label %lean_inc.exit25

lean_inc.exit25:                                  ; preds = %72, %71, %69, %lean_dec.exit33
  %73 = ptrtoint ptr %0 to i64
  %74 = and i64 %73, 1
  %.not71 = icmp eq i64 %74, 0
  br i1 %.not71, label %75, label %lean_dec.exit32

75:                                               ; preds = %lean_inc.exit25
  %76 = load i32, ptr %0, align 4, !tbaa !8
  %77 = icmp sgt i32 %76, 1
  br i1 %77, label %78, label %80, !prof !11

78:                                               ; preds = %75
  %79 = add nsw i32 %76, -1
  store i32 %79, ptr %0, align 4, !tbaa !8
  br label %lean_dec.exit32

80:                                               ; preds = %75
  %.not.i40 = icmp eq i32 %76, 0
  br i1 %.not.i40, label %lean_dec.exit32, label %81

81:                                               ; preds = %80
  tail call void @lean_dec_ref_cold(ptr noundef nonnull %0) #4
  br label %lean_dec.exit32

lean_dec.exit32:                                  ; preds = %81, %80, %78, %lean_inc.exit25
  %82 = getelementptr inbounds nuw i8, ptr %64, i64 8
  %83 = load ptr, ptr %82, align 8, !tbaa !4
  %84 = ptrtoint ptr %83 to i64
  %85 = and i64 %84, 1
  %.not72 = icmp eq i64 %85, 0
  br i1 %.not72, label %86, label %lean_inc.exit24

86:                                               ; preds = %lean_dec.exit32
  %.val.i61 = load i32, ptr %83, align 4, !tbaa !8
  %87 = icmp sgt i32 %.val.i61, 0
  br i1 %87, label %88, label %90, !prof !11

88:                                               ; preds = %86
  %89 = add nuw i32 %.val.i61, 1
  store i32 %89, ptr %83, align 4, !tbaa !8
  br label %lean_inc.exit24

90:                                               ; preds = %86
  %.not.i62 = icmp eq i32 %.val.i61, 0
  br i1 %.not.i62, label %lean_inc.exit24, label %91

91:                                               ; preds = %90
  tail call void @lean_inc_ref_cold(ptr noundef nonnull %83) #4
  br label %lean_inc.exit24

lean_inc.exit24:                                  ; preds = %91, %90, %88, %lean_dec.exit32
  br i1 %.not70, label %92, label %lean_dec.exit31

92:                                               ; preds = %lean_inc.exit24
  %93 = load i32, ptr %64, align 4, !tbaa !8
  %94 = icmp sgt i32 %93, 1
  br i1 %94, label %95, label %97, !prof !11

95:                                               ; preds = %92
  %96 = add nsw i32 %93, -1
  store i32 %96, ptr %64, align 4, !tbaa !8
  br label %lean_dec.exit31

97:                                               ; preds = %92
  %.not.i42 = icmp eq i32 %93, 0
  br i1 %.not.i42, label %lean_dec.exit31, label %98

98:                                               ; preds = %97
  tail call void @lean_dec_ref_cold(ptr noundef nonnull %64) #4
  br label %lean_dec.exit31

lean_dec.exit31:                                  ; preds = %98, %97, %95, %lean_inc.exit24
  %99 = getelementptr inbounds nuw i8, ptr %83, i64 104
  %100 = load ptr, ptr %99, align 8, !tbaa !4
  %101 = ptrtoint ptr %100 to i64
  %102 = and i64 %101, 1
  %.not73 = icmp eq i64 %102, 0
  br i1 %.not73, label %103, label %lean_inc.exit

103:                                              ; preds = %lean_dec.exit31
  %.val.i64 = load i32, ptr %100, align 4, !tbaa !8
  %104 = icmp sgt i32 %.val.i64, 0
  br i1 %104, label %105, label %107, !prof !11

105:                                              ; preds = %103
  %106 = add nuw i32 %.val.i64, 1
  store i32 %106, ptr %100, align 4, !tbaa !8
  br label %lean_inc.exit

107:                                              ; preds = %103
  %.not.i65 = icmp eq i32 %.val.i64, 0
  br i1 %.not.i65, label %lean_inc.exit, label %108

108:                                              ; preds = %107
  tail call void @lean_inc_ref_cold(ptr noundef nonnull %100) #4
  br label %lean_inc.exit

lean_inc.exit:                                    ; preds = %108, %107, %105, %lean_dec.exit31
  br i1 %.not72, label %109, label %lean_dec.exit30

109:                                              ; preds = %lean_inc.exit
  %110 = load i32, ptr %83, align 4, !tbaa !8
  %111 = icmp sgt i32 %110, 1
  br i1 %111, label %112, label %114, !prof !11

112:                                              ; preds = %109
  %113 = add nsw i32 %110, -1
  store i32 %113, ptr %83, align 4, !tbaa !8
  br label %lean_dec.exit30

114:                                              ; preds = %109
  %.not.i44 = icmp eq i32 %110, 0
  br i1 %.not.i44, label %lean_dec.exit30, label %115

115:                                              ; preds = %114
  tail call void @lean_dec_ref_cold(ptr noundef nonnull %83) #4
  br label %lean_dec.exit30

lean_dec.exit30:                                  ; preds = %115, %114, %112, %lean_inc.exit
  %116 = tail call ptr @l_Array_append___rarg(ptr noundef %47, ptr noundef %100) #4
  br i1 %.not73, label %117, label %lean_dec.exit

117:                                              ; preds = %lean_dec.exit30
  %118 = load i32, ptr %100, align 4, !tbaa !8
  %119 = icmp sgt i32 %118, 1
  br i1 %119, label %120, label %122, !prof !11

120:                                              ; preds = %117
  %121 = add nsw i32 %118, -1
  store i32 %121, ptr %100, align 4, !tbaa !8
  br label %lean_dec.exit

122:                                              ; preds = %117
  %.not.i46 = icmp eq i32 %118, 0
  br i1 %.not.i46, label %lean_dec.exit, label %123

123:                                              ; preds = %122
  tail call void @lean_dec_ref_cold(ptr noundef nonnull %100) #4
  br label %lean_dec.exit

lean_dec.exit:                                    ; preds = %123, %122, %120, %lean_dec.exit30
  ret ptr %116
}